; Function Attrs: mustprogress nofree norecurse nosync nounwind willreturn memory(read, inaccessiblemem: none) uwtable
define noundef double @_ZNK10open_spiel10battleship14BattleshipGame10MinUtilityEv(ptr noundef nonnull readonly align 8 captures(none) dereferenceable(328) %0) unnamed_addr #5 align 2 {
  %2 = getelementptr inbounds nuw i8, ptr %0, i64 320
  %3 = load double, ptr %2, align 8
  %4 = fcmp ogt double %3, 0.000000e+00
  br i1 %4, label %5, label %.loopexit

5:                                                ; preds = %1
  %6 = getelementptr inbounds nuw i8, ptr %0, i64 288
  %7 = load ptr, ptr %6, align 8
  %8 = getelementptr inbounds nuw i8, ptr %0, i64 296
  %9 = load ptr, ptr %8, align 8
  %.not9 = icmp eq ptr %7, %9
  br i1 %.not9, label %.loopexit, label %.lr.ph

.lr.ph:                                           ; preds = %5
  %10 = fneg double %3
  br label %11

11:                                               ; preds = %.lr.ph, %11
  %.111 = phi double [ 0.000000e+00, %.lr.ph ], [ %14, %11 ]
  %.sroa.06.010 = phi ptr [ %7, %.lr.ph ], [ %15, %11 ]
  %12 = getelementptr inbounds nuw i8, ptr %.sroa.06.010, i64 8
  %13 = load double, ptr %12, align 8
  %14 = tail call double @llvm.fmuladd.f64(double %10, double %13, double %.111)
  %15 = getelementptr inbounds nuw i8, ptr %.sroa.06.010, i64 16
  %.not = icmp eq ptr %15, %9
  br i1 %.not, label %.loopexit, label %11

.loopexit:                                        ; preds = %11, %5, %1
  %.0 = phi double [ 0.000000e+00, %1 ], [ 0.000000e+00, %5 ], [ %14, %11 ]
  ret double %.0
}